; Function Attrs: mustprogress uwtable
define hidden void @_ZN20eliminate_predicates16find_definitionsEv(ptr noundef nonnull align 8 dereferenceable(400) %0) local_unnamed_addr #3 align 2 {
  %2 = getelementptr inbounds nuw i8, ptr %0, i64 208
  %3 = load ptr, ptr %2, align 8, !tbaa !58
  %4 = icmp eq ptr %3, null
  br i1 %4, label %._crit_edge, label %_ZN6vectorIP9func_declLb0EjE3endEv.exit

_ZN6vectorIP9func_declLb0EjE3endEv.exit:          ; preds = %1
  %5 = getelementptr inbounds i8, ptr %3, i64 -4
  %6 = load i32, ptr %5, align 4, !tbaa !14
  %7 = zext i32 %6 to i64
  %8 = getelementptr inbounds nuw ptr, ptr %3, i64 %7
  %.not17 = icmp eq i32 %6, 0
  br i1 %.not17, label %._crit_edge, label %.lr.ph

._crit_edge:                                      ; preds = %.lr.ph, %1, %_ZN6vectorIP9func_declLb0EjE3endEv.exit
  %9 = getelementptr inbounds nuw i8, ptr %0, i64 32
  %10 = load ptr, ptr %9, align 8, !tbaa !35
  %11 = icmp eq ptr %10, null
  br i1 %11, label %._crit_edge22, label %_ZNK17scoped_ptr_vectorIN20eliminate_predicates6clauseEE3endEv.exit

_ZNK17scoped_ptr_vectorIN20eliminate_predicates6clauseEE3endEv.exit: ; preds = %._crit_edge
  %12 = getelementptr inbounds i8, ptr %10, i64 -4
  %13 = load i32, ptr %12, align 4, !tbaa !14
  %14 = zext i32 %13 to i64
  %15 = getelementptr inbounds nuw ptr, ptr %10, i64 %14
  %.not1619 = icmp eq i32 %13, 0
  br i1 %.not1619, label %._crit_edge22, label %.lr.ph21

.lr.ph:                                           ; preds = %_ZN6vectorIP9func_declLb0EjE3endEv.exit, %.lr.ph
  %.018 = phi ptr [ %17, %.lr.ph ], [ %3, %_ZN6vectorIP9func_declLb0EjE3endEv.exit ]
  %16 = load ptr, ptr %.018, align 8, !tbaa !81
  tail call void @_ZN20eliminate_predicates22try_resolve_definitionEP9func_decl(ptr noundef nonnull align 8 dereferenceable(400) %0, ptr noundef %16)
  %17 = getelementptr inbounds nuw i8, ptr %.018, i64 8
  %.not = icmp eq ptr %17, %8
  br i1 %.not, label %._crit_edge, label %.lr.ph

._crit_edge22:                                    ; preds = %.lr.ph21, %._crit_edge, %_ZNK17scoped_ptr_vectorIN20eliminate_predicates6clauseEE3endEv.exit
  ret void

.lr.ph21:                                         ; preds = %_ZNK17scoped_ptr_vectorIN20eliminate_predicates6clauseEE3endEv.exit, %.lr.ph21
  %.01520 = phi ptr [ %19, %.lr.ph21 ], [ %10, %_ZNK17scoped_ptr_vectorIN20eliminate_predicates6clauseEE3endEv.exit ]
  %18 = load ptr, ptr %.01520, align 8, !tbaa !61
  tail call void @_ZN20eliminate_predicates14try_find_macroERNS_6clauseE(ptr noundef nonnull align 8 dereferenceable(400) %0, ptr noundef nonnull align 8 dereferenceable(53) %18)
  %19 = getelementptr inbounds nuw i8, ptr %.01520, i64 8
  %.not16 = icmp eq ptr %19, %15
  br i1 %.not16, label %._crit_edge22, label %.lr.ph21
}